target datalayout = "e-m:e-p270:32:32-p271:32:32-p272:64:64-i64:64-i128:128-f80:128-n8:16:32:64-S128"
target triple = "x86_64-pc-linux-gnu"

%struct.VP8DSPContext = type { ptr, ptr, ptr, ptr, ptr, ptr, ptr, ptr, ptr, ptr, ptr, ptr, ptr, ptr, ptr, ptr, [3 x [3 x [3 x ptr]]], [3 x [3 x [3 x ptr]]] }

; Function Attrs: cold nounwind optsize uwtable
define void @ff_vp7dsp_init(ptr noundef %0) #0 {
  %2 = alloca ptr, align 8
  store ptr %0, ptr %2, align 8, !tbaa !4
  %3 = load ptr, ptr %2, align 8, !tbaa !4
  %4 = getelementptr inbounds nuw %struct.VP8DSPContext, ptr %3, i32 0, i32 0
  store ptr @vp7_luma_dc_wht_c, ptr %4, align 8, !tbaa !117
  %5 = load ptr, ptr %2, align 8, !tbaa !4
  %6 = getelementptr inbounds nuw %struct.VP8DSPContext, ptr %5, i32 0, i32 1
  store ptr @vp7_luma_dc_wht_dc_c, ptr %6, align 8, !tbaa !119
  %7 = load ptr, ptr %2, align 8, !tbaa !4
  %8 = getelementptr inbounds nuw %struct.VP8DSPContext, ptr %7, i32 0, i32 2
  store ptr @vp7_idct_add_c, ptr %8, align 8, !tbaa !120
  %9 = load ptr, ptr %2, align 8, !tbaa !4
  %10 = getelementptr inbounds nuw %struct.VP8DSPContext, ptr %9, i32 0, i32 3
  store ptr @vp7_idct_dc_add_c, ptr %10, align 8, !tbaa !121
  %11 = load ptr, ptr %2, align 8, !tbaa !4
  %12 = getelementptr inbounds nuw %struct.VP8DSPContext, ptr %11, i32 0, i32 4
  store ptr @vp7_idct_dc_add4y_c, ptr %12, align 8, !tbaa !122
  %13 = load ptr, ptr %2, align 8, !tbaa !4
  %14 = getelementptr inbounds nuw %struct.VP8DSPContext, ptr %13, i32 0, i32 5
  store ptr @vp7_idct_dc_add4uv_c, ptr %14, align 8, !tbaa !123
  %15 = load ptr, ptr %2, align 8, !tbaa !4
  %16 = getelementptr inbounds nuw %struct.VP8DSPContext, ptr %15, i32 0, i32 6
  store ptr @vp7_v_loop_filter16_c, ptr %16, align 8, !tbaa !124
  %17 = load ptr, ptr %2, align 8, !tbaa !4
  %18 = getelementptr inbounds nuw %struct.VP8DSPContext, ptr %17, i32 0, i32 7
  store ptr @vp7_h_loop_filter16_c, ptr %18, align 8, !tbaa !125
  %19 = load ptr, ptr %2, align 8, !tbaa !4
  %20 = getelementptr inbounds nuw %struct.VP8DSPContext, ptr %19, i32 0, i32 8
  store ptr @vp7_v_loop_filter8uv_c, ptr %20, align 8, !tbaa !126
  %21 = load ptr, ptr %2, align 8, !tbaa !4
  %22 = getelementptr inbounds nuw %struct.VP8DSPContext, ptr %21, i32 0, i32 9
  store ptr @vp7_h_loop_filter8uv_c, ptr %22, align 8, !tbaa !127
  %23 = load ptr, ptr %2, align 8, !tbaa !4
  %24 = getelementptr inbounds nuw %struct.VP8DSPContext, ptr %23, i32 0, i32 10
  store ptr @vp7_v_loop_filter16_inner_c, ptr %24, align 8, !tbaa !128
  %25 = load ptr, ptr %2, align 8, !tbaa !4
  %26 = getelementptr inbounds nuw %struct.VP8DSPContext, ptr %25, i32 0, i32 11
  store ptr @vp7_h_loop_filter16_inner_c, ptr %26, align 8, !tbaa !129
  %27 = load ptr, ptr %2, align 8, !tbaa !4
  %28 = getelementptr inbounds nuw %struct.VP8DSPContext, ptr %27, i32 0, i32 12
  store ptr @vp7_v_loop_filter8uv_inner_c, ptr %28, align 8, !tbaa !130
  %29 = load ptr, ptr %2, align 8, !tbaa !4
  %30 = getelementptr inbounds nuw %struct.VP8DSPContext, ptr %29, i32 0, i32 13
  store ptr @vp7_h_loop_filter8uv_inner_c, ptr %30, align 8, !tbaa !131
  %31 = load ptr, ptr %2, align 8, !tbaa !4
  %32 = getelementptr inbounds nuw %struct.VP8DSPContext, ptr %31, i32 0, i32 14
  store ptr @vp7_v_loop_filter_simple_c, ptr %32, align 8, !tbaa !132
  %33 = load ptr, ptr %2, align 8, !tbaa !4
  %34 = getelementptr inbounds nuw %struct.VP8DSPContext, ptr %33, i32 0, i32 15
  store ptr @vp7_h_loop_filter_simple_c, ptr %34, align 8, !tbaa !133
  ret void
}